target datalayout = "e-m:e-p270:32:32-p271:32:32-p272:64:64-i64:64-i128:128-f80:128-n8:16:32:64-S128"
target triple = "x86_64-pc-linux-gnu"

%struct.tMPI_Atomic = type { i32, [60 x i8] }
%struct.tmpi_comm_ = type { %struct.tmpi_group_, %struct.tMPI_Barrier_t, ptr, ptr, i32, ptr, ptr, ptr, ptr, %struct.tMPI_Thread_mutex_t, %struct.tMPI_Thread_cond_t, %struct.tMPI_Thread_cond_t, ptr, ptr, ptr, ptr, ptr, ptr, %struct.tMPI_Atomic }
%struct.tmpi_group_ = type { i32, ptr }
%struct.tMPI_Barrier_t = type { %struct.tMPI_Atomic, i32, %struct.tMPI_Atomic }
%struct.tMPI_Thread_mutex_t = type { %struct.tMPI_Atomic, ptr }
%struct.tMPI_Thread_cond_t = type { %struct.tMPI_Atomic, ptr }
%struct.coll_env = type { ptr, %struct.coll_env_coll, i32 }
%struct.coll_env_coll = type { %struct.tMPI_Atomic, %struct.tMPI_Atomic, ptr }
%struct.coll_sync = type { i32, i32, ptr, i32 }
%struct.tmpi_global = type { ptr, i32, i32, %struct.tMPI_Spinlock, %struct.tMPI_Thread_mutex_t, %struct.tMPI_Thread_barrier_t, %struct.tMPI_Thread_mutex_t, %struct.timeval }
%struct.tMPI_Spinlock = type { i32, [60 x i8] }
%struct.tMPI_Thread_barrier_t = type { %struct.tMPI_Atomic, ptr, i32, i32, i32 }
%struct.timeval = type { i64, i64 }

@TMPI_COMM_WORLD = external global ptr, align 8
@tmpi_global = external global ptr, align 8

; Function Attrs: mustprogress uwtable
define noundef i32 @_Z17tMPI_Comm_destroyP10tmpi_comm_i(ptr noundef %0, i32 noundef %1) #1 {
  %3 = alloca i32, align 4
  %4 = alloca ptr, align 8
  %5 = alloca i32, align 4
  %6 = alloca i32, align 4
  %7 = alloca i32, align 4
  %8 = alloca i32, align 4
  store ptr %0, ptr %4, align 8, !tbaa !3
  store i32 %1, ptr %5, align 4, !tbaa !30
  call void @llvm.lifetime.start.p0(i64 4, ptr %6) #8
  call void @llvm.lifetime.start.p0(i64 4, ptr %7) #8
  %9 = load ptr, ptr %4, align 8, !tbaa !3
  %10 = getelementptr inbounds nuw %struct.tmpi_comm_, ptr %9, i32 0, i32 0
  %11 = getelementptr inbounds nuw %struct.tmpi_group_, ptr %10, i32 0, i32 1
  %12 = load ptr, ptr %11, align 8, !tbaa !31
  call void @free(ptr noundef %12) #8
  store i32 0, ptr %6, align 4, !tbaa !30
  br label %13

13:                                               ; preds = %27, %2
  %14 = load i32, ptr %6, align 4, !tbaa !30
  %15 = load ptr, ptr %4, align 8, !tbaa !3
  %16 = getelementptr inbounds nuw %struct.tmpi_comm_, ptr %15, i32 0, i32 4
  %17 = load i32, ptr %16, align 8, !tbaa !43
  %18 = icmp slt i32 %14, %17
  br i1 %18, label %19, label %30

19:                                               ; preds = %13
  %20 = load ptr, ptr %4, align 8, !tbaa !3
  %21 = getelementptr inbounds nuw %struct.tmpi_comm_, ptr %20, i32 0, i32 2
  %22 = load ptr, ptr %21, align 8, !tbaa !44
  %23 = load i32, ptr %6, align 4, !tbaa !30
  %24 = sext i32 %23 to i64
  %25 = getelementptr inbounds ptr, ptr %22, i64 %24
  %26 = load ptr, ptr %25, align 8, !tbaa !46
  call void @free(ptr noundef %26) #8
  br label %27

27:                                               ; preds = %19
  %28 = load i32, ptr %6, align 4, !tbaa !30
  %29 = add nsw i32 %28, 1
  store i32 %29, ptr %6, align 4, !tbaa !30
  br label %13, !llvm.loop !62

30:                                               ; preds = %13
  %31 = load ptr, ptr %4, align 8, !tbaa !3
  %32 = getelementptr inbounds nuw %struct.tmpi_comm_, ptr %31, i32 0, i32 2
  %33 = load ptr, ptr %32, align 8, !tbaa !44
  call void @free(ptr noundef %33) #8
  %34 = load ptr, ptr %4, align 8, !tbaa !3
  %35 = getelementptr inbounds nuw %struct.tmpi_comm_, ptr %34, i32 0, i32 3
  %36 = load ptr, ptr %35, align 8, !tbaa !45
  call void @free(ptr noundef %36) #8
  store i32 0, ptr %6, align 4, !tbaa !30
  br label %37

37:                                               ; preds = %47, %30
  %38 = load i32, ptr %6, align 4, !tbaa !30
  %39 = icmp slt i32 %38, 2
  br i1 %39, label %40, label %50

40:                                               ; preds = %37
  %41 = load ptr, ptr %4, align 8, !tbaa !3
  %42 = getelementptr inbounds nuw %struct.tmpi_comm_, ptr %41, i32 0, i32 5
  %43 = load ptr, ptr %42, align 8, !tbaa !54
  %44 = load i32, ptr %6, align 4, !tbaa !30
  %45 = sext i32 %44 to i64
  %46 = getelementptr inbounds %struct.coll_env, ptr %43, i64 %45
  call void @_Z21tMPI_Coll_env_destroyP8coll_env(ptr noundef %46)
  br label %47

47:                                               ; preds = %40
  %48 = load i32, ptr %6, align 4, !tbaa !30
  %49 = add nsw i32 %48, 1
  store i32 %49, ptr %6, align 4, !tbaa !30
  br label %37, !llvm.loop !63

50:                                               ; preds = %37
  store i32 0, ptr %6, align 4, !tbaa !30
  br label %51

51:                                               ; preds = %65, %50
  %52 = load i32, ptr %6, align 4, !tbaa !30
  %53 = load ptr, ptr %4, align 8, !tbaa !3
  %54 = getelementptr inbounds nuw %struct.tmpi_comm_, ptr %53, i32 0, i32 0
  %55 = getelementptr inbounds nuw %struct.tmpi_group_, ptr %54, i32 0, i32 0
  %56 = load i32, ptr %55, align 8, !tbaa !8
  %57 = icmp slt i32 %52, %56
  br i1 %57, label %58, label %68

58:                                               ; preds = %51
  %59 = load ptr, ptr %4, align 8, !tbaa !3
  %60 = getelementptr inbounds nuw %struct.tmpi_comm_, ptr %59, i32 0, i32 6
  %61 = load ptr, ptr %60, align 8, !tbaa !56
  %62 = load i32, ptr %6, align 4, !tbaa !30
  %63 = sext i32 %62 to i64
  %64 = getelementptr inbounds %struct.coll_sync, ptr %61, i64 %63
  call void @_Z22tMPI_Coll_sync_destroyP9coll_sync(ptr noundef %64)
  br label %65

65:                                               ; preds = %58
  %66 = load i32, ptr %6, align 4, !tbaa !30
  %67 = add nsw i32 %66, 1
  store i32 %67, ptr %6, align 4, !tbaa !30
  br label %51, !llvm.loop !64

68:                                               ; preds = %51
  %69 = load ptr, ptr %4, align 8, !tbaa !3
  %70 = getelementptr inbounds nuw %struct.tmpi_comm_, ptr %69, i32 0, i32 5
  %71 = load ptr, ptr %70, align 8, !tbaa !54
  call void @free(ptr noundef %71) #8
  %72 = load ptr, ptr %4, align 8, !tbaa !3
  %73 = getelementptr inbounds nuw %struct.tmpi_comm_, ptr %72, i32 0, i32 6
  %74 = load ptr, ptr %73, align 8, !tbaa !56
  call void @free(ptr noundef %74) #8
  %75 = load ptr, ptr %4, align 8, !tbaa !3
  %76 = getelementptr inbounds nuw %struct.tmpi_comm_, ptr %75, i32 0, i32 9
  %77 = call noundef i32 @_Z25tMPI_Thread_mutex_destroyP19tMPI_Thread_mutex_t(ptr noundef %76)
  store i32 %77, ptr %7, align 4, !tbaa !30
  %78 = load i32, ptr %7, align 4, !tbaa !30
  %79 = icmp ne i32 %78, 0
  br i1 %79, label %80, label %83

80:                                               ; preds = %68
  %81 = load ptr, ptr @TMPI_COMM_WORLD, align 8, !tbaa !3
  %82 = call noundef i32 @_Z10tMPI_ErrorP10tmpi_comm_i(ptr noundef %81, i32 noundef 2)
  store i32 %82, ptr %3, align 4
  store i32 1, ptr %8, align 4
  br label %173

83:                                               ; preds = %68
  %84 = load ptr, ptr %4, align 8, !tbaa !3
  %85 = getelementptr inbounds nuw %struct.tmpi_comm_, ptr %84, i32 0, i32 10
  %86 = call noundef i32 @_Z24tMPI_Thread_cond_destroyP18tMPI_Thread_cond_t(ptr noundef %85)
  store i32 %86, ptr %7, align 4, !tbaa !30
  %87 = load i32, ptr %7, align 4, !tbaa !30
  %88 = icmp ne i32 %87, 0
  br i1 %88, label %89, label %92

89:                                               ; preds = %83
  %90 = load ptr, ptr @TMPI_COMM_WORLD, align 8, !tbaa !3
  %91 = call noundef i32 @_Z10tMPI_ErrorP10tmpi_comm_i(ptr noundef %90, i32 noundef 2)
  store i32 %91, ptr %3, align 4
  store i32 1, ptr %8, align 4
  br label %173

92:                                               ; preds = %83
  %93 = load ptr, ptr %4, align 8, !tbaa !3
  %94 = getelementptr inbounds nuw %struct.tmpi_comm_, ptr %93, i32 0, i32 11
  %95 = call noundef i32 @_Z24tMPI_Thread_cond_destroyP18tMPI_Thread_cond_t(ptr noundef %94)
  store i32 %95, ptr %7, align 4, !tbaa !30
  %96 = load i32, ptr %7, align 4, !tbaa !30
  %97 = icmp ne i32 %96, 0
  br i1 %97, label %98, label %101

98:                                               ; preds = %92
  %99 = load ptr, ptr @TMPI_COMM_WORLD, align 8, !tbaa !3
  %100 = call noundef i32 @_Z10tMPI_ErrorP10tmpi_comm_i(ptr noundef %99, i32 noundef 2)
  store i32 %100, ptr %3, align 4
  store i32 1, ptr %8, align 4
  br label %173

101:                                              ; preds = %92
  %102 = load ptr, ptr %4, align 8, !tbaa !3
  %103 = getelementptr inbounds nuw %struct.tmpi_comm_, ptr %102, i32 0, i32 7
  %104 = load ptr, ptr %103, align 8, !tbaa !50
  call void @free(ptr noundef %104) #8
  %105 = load ptr, ptr %4, align 8, !tbaa !3
  %106 = getelementptr inbounds nuw %struct.tmpi_comm_, ptr %105, i32 0, i32 8
  %107 = load ptr, ptr %106, align 8, !tbaa !51
  call void @free(ptr noundef %107) #8
  %108 = load ptr, ptr %4, align 8, !tbaa !3
  %109 = getelementptr inbounds nuw %struct.tmpi_comm_, ptr %108, i32 0, i32 14
  %110 = load ptr, ptr %109, align 8, !tbaa !40
  %111 = icmp ne ptr %110, null
  br i1 %111, label %112, label %119

112:                                              ; preds = %101
  %113 = load ptr, ptr %4, align 8, !tbaa !3
  %114 = getelementptr inbounds nuw %struct.tmpi_comm_, ptr %113, i32 0, i32 14
  %115 = load ptr, ptr %114, align 8, !tbaa !40
  call void @_Z17tMPI_Cart_destroyP10cart_topol(ptr noundef %115)
  %116 = load ptr, ptr %4, align 8, !tbaa !3
  %117 = getelementptr inbounds nuw %struct.tmpi_comm_, ptr %116, i32 0, i32 14
  %118 = load ptr, ptr %117, align 8, !tbaa !40
  call void @free(ptr noundef %118) #8
  br label %119

119:                                              ; preds = %112, %101
  %120 = load i32, ptr %5, align 4, !tbaa !30
  %121 = icmp ne i32 %120, 0
  br i1 %121, label %122, label %132

122:                                              ; preds = %119
  %123 = load ptr, ptr @tmpi_global, align 8, !tbaa !58
  %124 = getelementptr inbounds nuw %struct.tmpi_global, ptr %123, i32 0, i32 4
  %125 = call noundef i32 @_Z22tMPI_Thread_mutex_lockP19tMPI_Thread_mutex_t(ptr noundef %124)
  store i32 %125, ptr %7, align 4, !tbaa !30
  %126 = load i32, ptr %7, align 4, !tbaa !30
  %127 = icmp ne i32 %126, 0
  br i1 %127, label %128, label %131

128:                                              ; preds = %122
  %129 = load ptr, ptr @TMPI_COMM_WORLD, align 8, !tbaa !3
  %130 = call noundef i32 @_Z10tMPI_ErrorP10tmpi_comm_i(ptr noundef %129, i32 noundef 2)
  store i32 %130, ptr %3, align 4
  store i32 1, ptr %8, align 4
  br label %173

131:                                              ; preds = %122
  br label %132

132:                                              ; preds = %131, %119
  %133 = load ptr, ptr %4, align 8, !tbaa !3
  %134 = getelementptr inbounds nuw %struct.tmpi_comm_, ptr %133, i32 0, i32 16
  %135 = load ptr, ptr %134, align 8, !tbaa !60
  %136 = icmp ne ptr %135, null
  br i1 %136, label %137, label %145

137:                                              ; preds = %132
  %138 = load ptr, ptr %4, align 8, !tbaa !3
  %139 = getelementptr inbounds nuw %struct.tmpi_comm_, ptr %138, i32 0, i32 17
  %140 = load ptr, ptr %139, align 8, !tbaa !61
  %141 = load ptr, ptr %4, align 8, !tbaa !3
  %142 = getelementptr inbounds nuw %struct.tmpi_comm_, ptr %141, i32 0, i32 16
  %143 = load ptr, ptr %142, align 8, !tbaa !60
  %144 = getelementptr inbounds nuw %struct.tmpi_comm_, ptr %143, i32 0, i32 17
  store ptr %140, ptr %144, align 8, !tbaa !61
  br label %145

145:                                              ; preds = %137, %132
  %146 = load ptr, ptr %4, align 8, !tbaa !3
  %147 = getelementptr inbounds nuw %struct.tmpi_comm_, ptr %146, i32 0, i32 17
  %148 = load ptr, ptr %147, align 8, !tbaa !61
  %149 = icmp ne ptr %148, null
  br i1 %149, label %150, label %158

150:                                              ; preds = %145
  %151 = load ptr, ptr %4, align 8, !tbaa !3
  %152 = getelementptr inbounds nuw %struct.tmpi_comm_, ptr %151, i32 0, i32 16
  %153 = load ptr, ptr %152, align 8, !tbaa !60
  %154 = load ptr, ptr %4, align 8, !tbaa !3
  %155 = getelementptr inbounds nuw %struct.tmpi_comm_, ptr %154, i32 0, i32 17
  %156 = load ptr, ptr %155, align 8, !tbaa !61
  %157 = getelementptr inbounds nuw %struct.tmpi_comm_, ptr %156, i32 0, i32 16
  store ptr %153, ptr %157, align 8, !tbaa !60
  br label %158

158:                                              ; preds = %150, %145
  %159 = load ptr, ptr %4, align 8, !tbaa !3
  call void @free(ptr noundef %159) #8
  %160 = load i32, ptr %5, align 4, !tbaa !30
  %161 = icmp ne i32 %160, 0
  br i1 %161, label %162, label %172

162:                                              ; preds = %158
  %163 = load ptr, ptr @tmpi_global, align 8, !tbaa !58
  %164 = getelementptr inbounds nuw %struct.tmpi_global, ptr %163, i32 0, i32 4
  %165 = call noundef i32 @_Z24tMPI_Thread_mutex_unlockP19tMPI_Thread_mutex_t(ptr noundef %164)
  store i32 %165, ptr %7, align 4, !tbaa !30
  %166 = load i32, ptr %7, align 4, !tbaa !30
  %167 = icmp ne i32 %166, 0
  br i1 %167, label %168, label %171

168:                                              ; preds = %162
  %169 = load ptr, ptr @TMPI_COMM_WORLD, align 8, !tbaa !3
  %170 = call noundef i32 @_Z10tMPI_ErrorP10tmpi_comm_i(ptr noundef %169, i32 noundef 2)
  store i32 %170, ptr %3, align 4
  store i32 1, ptr %8, align 4
  br label %173

171:                                              ; preds = %162
  br label %172

172:                                              ; preds = %171, %158
  store i32 0, ptr %3, align 4
  store i32 1, ptr %8, align 4
  br label %173

173:                                              ; preds = %172, %168, %128, %98, %89, %80
  call void @llvm.lifetime.end.p0(i64 4, ptr %7) #8
  call void @llvm.lifetime.end.p0(i64 4, ptr %6) #8
  %174 = load i32, ptr %3, align 4
  ret i32 %174
}