; Function Attrs: mustprogress uwtable
define noundef i32 @_Z17tMPI_Comm_destroyP10tmpi_comm_i(ptr noundef %0, i32 noundef %1) local_unnamed_addr #1 {
  %3 = getelementptr inbounds nuw i8, ptr %0, i64 8
  %4 = load ptr, ptr %3, align 8, !tbaa !29
  tail call void @free(ptr noundef %4) #8
  %5 = getelementptr inbounds nuw i8, ptr %0, i64 168
  %6 = load i32, ptr %5, align 8, !tbaa !38
  %7 = icmp sgt i32 %6, 0
  br i1 %7, label %.lr.ph, label %._crit_edge

.lr.ph:                                           ; preds = %2
  %8 = getelementptr inbounds nuw i8, ptr %0, i64 152
  br label %9

9:                                                ; preds = %.lr.ph, %9
  %indvars.iv = phi i64 [ 0, %.lr.ph ], [ %indvars.iv.next, %9 ]
  %10 = load ptr, ptr %8, align 8, !tbaa !39
  %11 = getelementptr inbounds nuw ptr, ptr %10, i64 %indvars.iv
  %12 = load ptr, ptr %11, align 8, !tbaa !41
  tail call void @free(ptr noundef %12) #8
  %indvars.iv.next = add nuw nsw i64 %indvars.iv, 1
  %13 = load i32, ptr %5, align 8, !tbaa !38
  %14 = sext i32 %13 to i64
  %15 = icmp slt i64 %indvars.iv.next, %14
  br i1 %15, label %9, label %._crit_edge, !llvm.loop !57

._crit_edge:                                      ; preds = %9, %2
  %16 = getelementptr inbounds nuw i8, ptr %0, i64 152
  %17 = load ptr, ptr %16, align 8, !tbaa !39
  tail call void @free(ptr noundef %17) #8
  %18 = getelementptr inbounds nuw i8, ptr %0, i64 160
  %19 = load ptr, ptr %18, align 8, !tbaa !40
  tail call void @free(ptr noundef %19) #8
  %20 = getelementptr inbounds nuw i8, ptr %0, i64 176
  %21 = load ptr, ptr %20, align 8, !tbaa !49
  tail call void @_Z21tMPI_Coll_env_destroyP8coll_env(ptr noundef %21)
  %22 = load ptr, ptr %20, align 8, !tbaa !49
  %23 = getelementptr inbounds nuw i8, ptr %22, i64 152
  tail call void @_Z21tMPI_Coll_env_destroyP8coll_env(ptr noundef nonnull %23)
  %24 = load i32, ptr %0, align 8, !tbaa !3
  %25 = icmp sgt i32 %24, 0
  br i1 %25, label %.lr.ph56, label %._crit_edge57

.lr.ph56:                                         ; preds = %._crit_edge
  %26 = getelementptr inbounds nuw i8, ptr %0, i64 184
  br label %27

27:                                               ; preds = %.lr.ph56, %27
  %indvars.iv62 = phi i64 [ 0, %.lr.ph56 ], [ %indvars.iv.next63, %27 ]
  %28 = load ptr, ptr %26, align 8, !tbaa !51
  %29 = getelementptr inbounds nuw %struct.coll_sync, ptr %28, i64 %indvars.iv62
  tail call void @_Z22tMPI_Coll_sync_destroyP9coll_sync(ptr noundef %29)
  %indvars.iv.next63 = add nuw nsw i64 %indvars.iv62, 1
  %30 = load i32, ptr %0, align 8, !tbaa !3
  %31 = sext i32 %30 to i64
  %32 = icmp slt i64 %indvars.iv.next63, %31
  br i1 %32, label %27, label %._crit_edge57, !llvm.loop !58

._crit_edge57:                                    ; preds = %27, %._crit_edge
  %33 = load ptr, ptr %20, align 8, !tbaa !49
  tail call void @free(ptr noundef %33) #8
  %34 = getelementptr inbounds nuw i8, ptr %0, i64 184
  %35 = load ptr, ptr %34, align 8, !tbaa !51
  tail call void @free(ptr noundef %35) #8
  %36 = getelementptr inbounds nuw i8, ptr %0, i64 208
  %37 = tail call noundef i32 @_Z25tMPI_Thread_mutex_destroyP19tMPI_Thread_mutex_t(ptr noundef nonnull %36)
  %.not = icmp eq i32 %37, 0
  br i1 %.not, label %38, label %.sink.split

38:                                               ; preds = %._crit_edge57
  %39 = getelementptr inbounds nuw i8, ptr %0, i64 280
  %40 = tail call noundef i32 @_Z24tMPI_Thread_cond_destroyP18tMPI_Thread_cond_t(ptr noundef nonnull %39)
  %.not45 = icmp eq i32 %40, 0
  br i1 %.not45, label %41, label %.sink.split

41:                                               ; preds = %38
  %42 = getelementptr inbounds nuw i8, ptr %0, i64 352
  %43 = tail call noundef i32 @_Z24tMPI_Thread_cond_destroyP18tMPI_Thread_cond_t(ptr noundef nonnull %42)
  %.not46 = icmp eq i32 %43, 0
  br i1 %.not46, label %44, label %.sink.split

44:                                               ; preds = %41
  %45 = getelementptr inbounds nuw i8, ptr %0, i64 192
  %46 = load ptr, ptr %45, align 8, !tbaa !45
  tail call void @free(ptr noundef %46) #8
  %47 = getelementptr inbounds nuw i8, ptr %0, i64 200
  %48 = load ptr, ptr %47, align 8, !tbaa !46
  tail call void @free(ptr noundef %48) #8
  %49 = getelementptr inbounds nuw i8, ptr %0, i64 440
  %50 = load ptr, ptr %49, align 8, !tbaa !59
  %.not47 = icmp eq ptr %50, null
  br i1 %.not47, label %53, label %51

51:                                               ; preds = %44
  tail call void @_Z17tMPI_Cart_destroyP10cart_topol(ptr noundef nonnull %50)
  %52 = load ptr, ptr %49, align 8, !tbaa !59
  tail call void @free(ptr noundef %52) #8
  br label %53

53:                                               ; preds = %51, %44
  %.not48 = icmp eq i32 %1, 0
  br i1 %.not48, label %58, label %54

54:                                               ; preds = %53
  %55 = load ptr, ptr @tmpi_global, align 8, !tbaa !53
  %56 = getelementptr inbounds nuw i8, ptr %55, i64 80
  %57 = tail call noundef i32 @_Z22tMPI_Thread_mutex_lockP19tMPI_Thread_mutex_t(ptr noundef nonnull %56)
  %.not49 = icmp eq i32 %57, 0
  br i1 %.not49, label %58, label %.sink.split

58:                                               ; preds = %54, %53
  %59 = getelementptr inbounds nuw i8, ptr %0, i64 456
  %60 = load ptr, ptr %59, align 8, !tbaa !55
  %.not50 = icmp eq ptr %60, null
  %.phi.trans.insert = getelementptr inbounds nuw i8, ptr %0, i64 464
  %.pre = load ptr, ptr %.phi.trans.insert, align 8, !tbaa !56
  br i1 %.not50, label %._crit_edge65, label %61

61:                                               ; preds = %58
  %62 = getelementptr inbounds nuw i8, ptr %60, i64 464
  store ptr %.pre, ptr %62, align 8, !tbaa !56
  br label %._crit_edge65

._crit_edge65:                                    ; preds = %58, %61
  %.not51 = icmp eq ptr %.pre, null
  br i1 %.not51, label %65, label %63

63:                                               ; preds = %._crit_edge65
  %64 = getelementptr inbounds nuw i8, ptr %.pre, i64 456
  store ptr %60, ptr %64, align 8, !tbaa !55
  br label %65

65:                                               ; preds = %63, %._crit_edge65
  tail call void @free(ptr noundef nonnull %0) #8
  br i1 %.not48, label %72, label %66

66:                                               ; preds = %65
  %67 = load ptr, ptr @tmpi_global, align 8, !tbaa !53
  %68 = getelementptr inbounds nuw i8, ptr %67, i64 80
  %69 = tail call noundef i32 @_Z24tMPI_Thread_mutex_unlockP19tMPI_Thread_mutex_t(ptr noundef nonnull %68)
  %.not52 = icmp eq i32 %69, 0
  br i1 %.not52, label %72, label %.sink.split

.sink.split:                                      ; preds = %66, %54, %41, %38, %._crit_edge57
  %70 = load ptr, ptr @TMPI_COMM_WORLD, align 8, !tbaa !35
  %71 = tail call noundef i32 @_Z10tMPI_ErrorP10tmpi_comm_i(ptr noundef %70, i32 noundef 2)
  br label %72

72:                                               ; preds = %.sink.split, %65, %66
  %.041 = phi i32 [ 0, %66 ], [ 0, %65 ], [ %71, %.sink.split ]
  ret i32 %.041
}